target datalayout = "e-m:e-p270:32:32-p271:32:32-p272:64:64-i64:64-i128:128-f80:128-n8:16:32:64-S128"
target triple = "x86_64-pc-linux-gnu"

%struct.FunctionCallInfoBaseData = type { ptr, ptr, ptr, i32, i8, i16, [0 x %struct.NullableDatum] }
%struct.NullableDatum = type { i64, i8 }

; Function Attrs: inlinehint nounwind uwtable
define internal i64 @BoolGetDatum(i1 noundef zeroext %0) #4 {
  %2 = alloca i8, align 1
  %3 = zext i1 %0 to i8
  store i8 %3, ptr %2, align 1
  %4 = load i8, ptr %2, align 1, !range !4, !noundef !5
  %5 = trunc i8 %4 to i1
  %6 = select i1 %5, i32 1, i32 0
  %7 = sext i32 %6 to i64
  ret i64 %7
}

; Function Attrs: inlinehint nounwind uwtable
define internal zeroext i1 @DatumGetBool(i64 noundef %0) #4 {
  %2 = alloca i64, align 8
  store i64 %0, ptr %2, align 8
  %3 = load i64, ptr %2, align 8
  %4 = icmp ne i64 %3, 0
  ret i1 %4
}

; Function Attrs: nounwind uwtable
define dso_local i64 @overlaps_timetz(ptr noundef %0) #0 {
  %2 = alloca i64, align 8
  %3 = alloca ptr, align 8
  %4 = alloca i64, align 8
  %5 = alloca i64, align 8
  %6 = alloca i64, align 8
  %7 = alloca i64, align 8
  %8 = alloca i8, align 1
  %9 = alloca i8, align 1
  %10 = alloca i8, align 1
  %11 = alloca i8, align 1
  %12 = alloca i32, align 4
  %13 = alloca i64, align 8
  %14 = alloca i64, align 8
  store ptr %0, ptr %3, align 8
  call void @llvm.lifetime.start.p0(i64 8, ptr %4) #9
  %15 = load ptr, ptr %3, align 8
  %16 = getelementptr inbounds nuw %struct.FunctionCallInfoBaseData, ptr %15, i32 0, i32 6
  %17 = getelementptr inbounds [0 x %struct.NullableDatum], ptr %16, i64 0, i64 0
  %18 = getelementptr inbounds nuw %struct.NullableDatum, ptr %17, i32 0, i32 0
  %19 = load i64, ptr %18, align 8
  store i64 %19, ptr %4, align 8
  call void @llvm.lifetime.start.p0(i64 8, ptr %5) #9
  %20 = load ptr, ptr %3, align 8
  %21 = getelementptr inbounds nuw %struct.FunctionCallInfoBaseData, ptr %20, i32 0, i32 6
  %22 = getelementptr inbounds [0 x %struct.NullableDatum], ptr %21, i64 0, i64 1
  %23 = getelementptr inbounds nuw %struct.NullableDatum, ptr %22, i32 0, i32 0
  %24 = load i64, ptr %23, align 8
  store i64 %24, ptr %5, align 8
  call void @llvm.lifetime.start.p0(i64 8, ptr %6) #9
  %25 = load ptr, ptr %3, align 8
  %26 = getelementptr inbounds nuw %struct.FunctionCallInfoBaseData, ptr %25, i32 0, i32 6
  %27 = getelementptr inbounds [0 x %struct.NullableDatum], ptr %26, i64 0, i64 2
  %28 = getelementptr inbounds nuw %struct.NullableDatum, ptr %27, i32 0, i32 0
  %29 = load i64, ptr %28, align 8
  store i64 %29, ptr %6, align 8
  call void @llvm.lifetime.start.p0(i64 8, ptr %7) #9
  %30 = load ptr, ptr %3, align 8
  %31 = getelementptr inbounds nuw %struct.FunctionCallInfoBaseData, ptr %30, i32 0, i32 6
  %32 = getelementptr inbounds [0 x %struct.NullableDatum], ptr %31, i64 0, i64 3
  %33 = getelementptr inbounds nuw %struct.NullableDatum, ptr %32, i32 0, i32 0
  %34 = load i64, ptr %33, align 8
  store i64 %34, ptr %7, align 8
  call void @llvm.lifetime.start.p0(i64 1, ptr %8) #9
  %35 = load ptr, ptr %3, align 8
  %36 = getelementptr inbounds nuw %struct.FunctionCallInfoBaseData, ptr %35, i32 0, i32 6
  %37 = getelementptr inbounds [0 x %struct.NullableDatum], ptr %36, i64 0, i64 0
  %38 = getelementptr inbounds nuw %struct.NullableDatum, ptr %37, i32 0, i32 1
  %39 = load i8, ptr %38, align 8, !range !4, !noundef !5
  %40 = trunc i8 %39 to i1
  %41 = zext i1 %40 to i8
  store i8 %41, ptr %8, align 1
  call void @llvm.lifetime.start.p0(i64 1, ptr %9) #9
  %42 = load ptr, ptr %3, align 8
  %43 = getelementptr inbounds nuw %struct.FunctionCallInfoBaseData, ptr %42, i32 0, i32 6
  %44 = getelementptr inbounds [0 x %struct.NullableDatum], ptr %43, i64 0, i64 1
  %45 = getelementptr inbounds nuw %struct.NullableDatum, ptr %44, i32 0, i32 1
  %46 = load i8, ptr %45, align 8, !range !4, !noundef !5
  %47 = trunc i8 %46 to i1
  %48 = zext i1 %47 to i8
  store i8 %48, ptr %9, align 1
  call void @llvm.lifetime.start.p0(i64 1, ptr %10) #9
  %49 = load ptr, ptr %3, align 8
  %50 = getelementptr inbounds nuw %struct.FunctionCallInfoBaseData, ptr %49, i32 0, i32 6
  %51 = getelementptr inbounds [0 x %struct.NullableDatum], ptr %50, i64 0, i64 2
  %52 = getelementptr inbounds nuw %struct.NullableDatum, ptr %51, i32 0, i32 1
  %53 = load i8, ptr %52, align 8, !range !4, !noundef !5
  %54 = trunc i8 %53 to i1
  %55 = zext i1 %54 to i8
  store i8 %55, ptr %10, align 1
  call void @llvm.lifetime.start.p0(i64 1, ptr %11) #9
  %56 = load ptr, ptr %3, align 8
  %57 = getelementptr inbounds nuw %struct.FunctionCallInfoBaseData, ptr %56, i32 0, i32 6
  %58 = getelementptr inbounds [0 x %struct.NullableDatum], ptr %57, i64 0, i64 3
  %59 = getelementptr inbounds nuw %struct.NullableDatum, ptr %58, i32 0, i32 1
  %60 = load i8, ptr %59, align 8, !range !4, !noundef !5
  %61 = trunc i8 %60 to i1
  %62 = zext i1 %61 to i8
  store i8 %62, ptr %11, align 1
  %63 = load i8, ptr %8, align 1, !range !4, !noundef !5
  %64 = trunc i8 %63 to i1
  br i1 %64, label %65, label %76

65:                                               ; preds = %1
  %66 = load i8, ptr %9, align 1, !range !4, !noundef !5
  %67 = trunc i8 %66 to i1
  br i1 %67, label %68, label %74

68:                                               ; preds = %65
  br label %69

69:                                               ; preds = %68
  %70 = load ptr, ptr %3, align 8
  %71 = getelementptr inbounds nuw %struct.FunctionCallInfoBaseData, ptr %70, i32 0, i32 4
  store i8 1, ptr %71, align 4
  store i64 0, ptr %2, align 8
  store i32 1, ptr %12, align 4
  br label %196

72:                                               ; No predecessors!
  br label %73

73:                                               ; preds = %72
  br label %74

74:                                               ; preds = %73, %65
  %75 = load i64, ptr %5, align 8
  store i64 %75, ptr %4, align 8
  store i8 1, ptr %9, align 1
  br label %90

76:                                               ; preds = %1
  %77 = load i8, ptr %9, align 1, !range !4, !noundef !5
  %78 = trunc i8 %77 to i1
  br i1 %78, label %89, label %79

79:                                               ; preds = %76
  %80 = load i64, ptr %4, align 8
  %81 = load i64, ptr %5, align 8
  %82 = call i64 @DirectFunctionCall2Coll(ptr noundef @timetz_gt, i32 noundef 0, i64 noundef %80, i64 noundef %81)
  %83 = call zeroext i1 @DatumGetBool(i64 noundef %82)
  br i1 %83, label %84, label %88

84:                                               ; preds = %79
  call void @llvm.lifetime.start.p0(i64 8, ptr %13) #9
  %85 = load i64, ptr %4, align 8
  store i64 %85, ptr %13, align 8
  %86 = load i64, ptr %5, align 8
  store i64 %86, ptr %4, align 8
  %87 = load i64, ptr %13, align 8
  store i64 %87, ptr %5, align 8
  call void @llvm.lifetime.end.p0(i64 8, ptr %13) #9
  br label %88

88:                                               ; preds = %84, %79
  br label %89

89:                                               ; preds = %88, %76
  br label %90

90:                                               ; preds = %89, %74
  %91 = load i8, ptr %10, align 1, !range !4, !noundef !5
  %92 = trunc i8 %91 to i1
  br i1 %92, label %93, label %104

93:                                               ; preds = %90
  %94 = load i8, ptr %11, align 1, !range !4, !noundef !5
  %95 = trunc i8 %94 to i1
  br i1 %95, label %96, label %102

96:                                               ; preds = %93
  br label %97

97:                                               ; preds = %96
  %98 = load ptr, ptr %3, align 8
  %99 = getelementptr inbounds nuw %struct.FunctionCallInfoBaseData, ptr %98, i32 0, i32 4
  store i8 1, ptr %99, align 4
  store i64 0, ptr %2, align 8
  store i32 1, ptr %12, align 4
  br label %196

100:                                              ; No predecessors!
  br label %101

101:                                              ; preds = %100
  br label %102

102:                                              ; preds = %101, %93
  %103 = load i64, ptr %7, align 8
  store i64 %103, ptr %6, align 8
  store i8 1, ptr %11, align 1
  br label %118

104:                                              ; preds = %90
  %105 = load i8, ptr %11, align 1, !range !4, !noundef !5
  %106 = trunc i8 %105 to i1
  br i1 %106, label %117, label %107

107:                                              ; preds = %104
  %108 = load i64, ptr %6, align 8
  %109 = load i64, ptr %7, align 8
  %110 = call i64 @DirectFunctionCall2Coll(ptr noundef @timetz_gt, i32 noundef 0, i64 noundef %108, i64 noundef %109)
  %111 = call zeroext i1 @DatumGetBool(i64 noundef %110)
  br i1 %111, label %112, label %116

112:                                              ; preds = %107
  call void @llvm.lifetime.start.p0(i64 8, ptr %14) #9
  %113 = load i64, ptr %6, align 8
  store i64 %113, ptr %14, align 8
  %114 = load i64, ptr %7, align 8
  store i64 %114, ptr %6, align 8
  %115 = load i64, ptr %14, align 8
  store i64 %115, ptr %7, align 8
  call void @llvm.lifetime.end.p0(i64 8, ptr %14) #9
  br label %116

116:                                              ; preds = %112, %107
  br label %117

117:                                              ; preds = %116, %104
  br label %118

118:                                              ; preds = %117, %102
  %119 = load i64, ptr %4, align 8
  %120 = load i64, ptr %6, align 8
  %121 = call i64 @DirectFunctionCall2Coll(ptr noundef @timetz_gt, i32 noundef 0, i64 noundef %119, i64 noundef %120)
  %122 = call zeroext i1 @DatumGetBool(i64 noundef %121)
  br i1 %122, label %123, label %150

123:                                              ; preds = %118
  %124 = load i8, ptr %11, align 1, !range !4, !noundef !5
  %125 = trunc i8 %124 to i1
  br i1 %125, label %126, label %132

126:                                              ; preds = %123
  br label %127

127:                                              ; preds = %126
  %128 = load ptr, ptr %3, align 8
  %129 = getelementptr inbounds nuw %struct.FunctionCallInfoBaseData, ptr %128, i32 0, i32 4
  store i8 1, ptr %129, align 4
  store i64 0, ptr %2, align 8
  store i32 1, ptr %12, align 4
  br label %196

130:                                              ; No predecessors!
  br label %131

131:                                              ; preds = %130
  br label %132

132:                                              ; preds = %131, %123
  %133 = load i64, ptr %4, align 8
  %134 = load i64, ptr %7, align 8
  %135 = call i64 @DirectFunctionCall2Coll(ptr noundef @timetz_lt, i32 noundef 0, i64 noundef %133, i64 noundef %134)
  %136 = call zeroext i1 @DatumGetBool(i64 noundef %135)
  br i1 %136, label %137, label %139

137:                                              ; preds = %132
  %138 = call i64 @BoolGetDatum(i1 noundef zeroext true)
  store i64 %138, ptr %2, align 8
  store i32 1, ptr %12, align 4
  br label %196

139:                                              ; preds = %132
  %140 = load i8, ptr %9, align 1, !range !4, !noundef !5
  %141 = trunc i8 %140 to i1
  br i1 %141, label %142, label %148

142:                                              ; preds = %139
  br label %143

143:                                              ; preds = %142
  %144 = load ptr, ptr %3, align 8
  %145 = getelementptr inbounds nuw %struct.FunctionCallInfoBaseData, ptr %144, i32 0, i32 4
  store i8 1, ptr %145, align 4
  store i64 0, ptr %2, align 8
  store i32 1, ptr %12, align 4
  br label %196

146:                                              ; No predecessors!
  br label %147

147:                                              ; preds = %146
  br label %148

148:                                              ; preds = %147, %139
  %149 = call i64 @BoolGetDatum(i1 noundef zeroext false)
  store i64 %149, ptr %2, align 8
  store i32 1, ptr %12, align 4
  br label %196

150:                                              ; preds = %118
  %151 = load i64, ptr %4, align 8
  %152 = load i64, ptr %6, align 8
  %153 = call i64 @DirectFunctionCall2Coll(ptr noundef @timetz_lt, i32 noundef 0, i64 noundef %151, i64 noundef %152)
  %154 = call zeroext i1 @DatumGetBool(i64 noundef %153)
  br i1 %154, label %155, label %182

155:                                              ; preds = %150
  %156 = load i8, ptr %9, align 1, !range !4, !noundef !5
  %157 = trunc i8 %156 to i1
  br i1 %157, label %158, label %164

158:                                              ; preds = %155
  br label %159

159:                                              ; preds = %158
  %160 = load ptr, ptr %3, align 8
  %161 = getelementptr inbounds nuw %struct.FunctionCallInfoBaseData, ptr %160, i32 0, i32 4
  store i8 1, ptr %161, align 4
  store i64 0, ptr %2, align 8
  store i32 1, ptr %12, align 4
  br label %196

162:                                              ; No predecessors!
  br label %163

163:                                              ; preds = %162
  br label %164

164:                                              ; preds = %163, %155
  %165 = load i64, ptr %6, align 8
  %166 = load i64, ptr %5, align 8
  %167 = call i64 @DirectFunctionCall2Coll(ptr noundef @timetz_lt, i32 noundef 0, i64 noundef %165, i64 noundef %166)
  %168 = call zeroext i1 @DatumGetBool(i64 noundef %167)
  br i1 %168, label %169, label %171

169:                                              ; preds = %164
  %170 = call i64 @BoolGetDatum(i1 noundef zeroext true)
  store i64 %170, ptr %2, align 8
  store i32 1, ptr %12, align 4
  br label %196

171:                                              ; preds = %164
  %172 = load i8, ptr %11, align 1, !range !4, !noundef !5
  %173 = trunc i8 %172 to i1
  br i1 %173, label %174, label %180

174:                                              ; preds = %171
  br label %175

175:                                              ; preds = %174
  %176 = load ptr, ptr %3, align 8
  %177 = getelementptr inbounds nuw %struct.FunctionCallInfoBaseData, ptr %176, i32 0, i32 4
  store i8 1, ptr %177, align 4
  store i64 0, ptr %2, align 8
  store i32 1, ptr %12, align 4
  br label %196

178:                                              ; No predecessors!
  br label %179

179:                                              ; preds = %178
  br label %180

180:                                              ; preds = %179, %171
  %181 = call i64 @BoolGetDatum(i1 noundef zeroext false)
  store i64 %181, ptr %2, align 8
  store i32 1, ptr %12, align 4
  br label %196

182:                                              ; preds = %150
  %183 = load i8, ptr %9, align 1, !range !4, !noundef !5
  %184 = trunc i8 %183 to i1
  br i1 %184, label %188, label %185

185:                                              ; preds = %182
  %186 = load i8, ptr %11, align 1, !range !4, !noundef !5
  %187 = trunc i8 %186 to i1
  br i1 %187, label %188, label %194

188:                                              ; preds = %185, %182
  br label %189

189:                                              ; preds = %188
  %190 = load ptr, ptr %3, align 8
  %191 = getelementptr inbounds nuw %struct.FunctionCallInfoBaseData, ptr %190, i32 0, i32 4
  store i8 1, ptr %191, align 4
  store i64 0, ptr %2, align 8
  store i32 1, ptr %12, align 4
  br label %196

192:                                              ; No predecessors!
  br label %193

193:                                              ; preds = %192
  br label %194

194:                                              ; preds = %193, %185
  %195 = call i64 @BoolGetDatum(i1 noundef zeroext true)
  store i64 %195, ptr %2, align 8
  store i32 1, ptr %12, align 4
  br label %196

196:                                              ; preds = %194, %189, %180, %175, %169, %159, %148, %143, %137, %127, %97, %69
  call void @llvm.lifetime.end.p0(i64 1, ptr %11) #9
  call void @llvm.lifetime.end.p0(i64 1, ptr %10) #9
  call void @llvm.lifetime.end.p0(i64 1, ptr %9) #9
  call void @llvm.lifetime.end.p0(i64 1, ptr %8) #9
  call void @llvm.lifetime.end.p0(i64 8, ptr %7) #9
  call void @llvm.lifetime.end.p0(i64 8, ptr %6) #9
  call void @llvm.lifetime.end.p0(i64 8, ptr %5) #9
  call void @llvm.lifetime.end.p0(i64 8, ptr %4) #9
  %197 = load i64, ptr %2, align 8
  ret i64 %197
}