; Function Attrs: nounwind uwtable
define dso_local range(i64 0, 2) i64 @overlaps_timetz(ptr noundef captures(none) %0) local_unnamed_addr #0 {
  %2 = getelementptr inbounds nuw i8, ptr %0, i64 32
  %3 = load i64, ptr %2, align 8
  %4 = getelementptr inbounds nuw i8, ptr %0, i64 48
  %5 = load i64, ptr %4, align 8
  %6 = getelementptr inbounds nuw i8, ptr %0, i64 64
  %7 = load i64, ptr %6, align 8
  %8 = getelementptr inbounds nuw i8, ptr %0, i64 80
  %9 = load i64, ptr %8, align 8
  %10 = getelementptr inbounds nuw i8, ptr %0, i64 40
  %11 = load i8, ptr %10, align 8, !range !10, !noundef !11
  %12 = trunc nuw i8 %11 to i1
  %13 = getelementptr inbounds nuw i8, ptr %0, i64 56
  %14 = load i8, ptr %13, align 8, !range !10, !noundef !11
  %15 = trunc nuw i8 %14 to i1
  %16 = getelementptr inbounds nuw i8, ptr %0, i64 72
  %17 = load i8, ptr %16, align 8, !range !10, !noundef !11
  %18 = trunc nuw i8 %17 to i1
  %19 = getelementptr inbounds nuw i8, ptr %0, i64 88
  %20 = load i8, ptr %19, align 8, !range !10, !noundef !11
  %21 = trunc nuw i8 %20 to i1
  br i1 %12, label %22, label %23

22:                                               ; preds = %1
  br i1 %15, label %.sink.split, label %26

23:                                               ; preds = %1
  br i1 %15, label %26, label %24

24:                                               ; preds = %23
  %25 = tail call i64 @DirectFunctionCall2Coll(ptr noundef nonnull @timetz_gt, i32 noundef 0, i64 noundef %3, i64 noundef %5) #16
  %.not = icmp eq i64 %25, 0
  %spec.select = select i1 %.not, i64 %5, i64 %3
  %spec.select53 = select i1 %.not, i64 %3, i64 %5
  br label %26

26:                                               ; preds = %24, %22, %23
  %.050 = phi i1 [ true, %23 ], [ true, %22 ], [ false, %24 ]
  %.049 = phi i64 [ %5, %23 ], [ %5, %22 ], [ %spec.select, %24 ]
  %.047 = phi i64 [ %3, %23 ], [ %5, %22 ], [ %spec.select53, %24 ]
  br i1 %18, label %27, label %28

27:                                               ; preds = %26
  br i1 %21, label %.sink.split, label %29

28:                                               ; preds = %26
  br i1 %21, label %29, label %.thread

29:                                               ; preds = %27, %28
  %.051 = phi i64 [ %7, %28 ], [ %9, %27 ]
  %30 = tail call i64 @DirectFunctionCall2Coll(ptr noundef nonnull @timetz_gt, i32 noundef 0, i64 noundef %.047, i64 noundef %.051) #16
  %.not57 = icmp eq i64 %30, 0
  br i1 %.not57, label %35, label %.sink.split

.thread:                                          ; preds = %28
  %31 = tail call i64 @DirectFunctionCall2Coll(ptr noundef nonnull @timetz_gt, i32 noundef 0, i64 noundef %7, i64 noundef %9) #16
  %.not56 = icmp eq i64 %31, 0
  %spec.select55 = select i1 %.not56, i64 %7, i64 %9
  %32 = tail call i64 @DirectFunctionCall2Coll(ptr noundef nonnull @timetz_gt, i32 noundef 0, i64 noundef %.047, i64 noundef %spec.select55) #16
  %.not5767 = icmp eq i64 %32, 0
  br i1 %.not5767, label %35, label %33

33:                                               ; preds = %.thread
  %spec.select54 = select i1 %.not56, i64 %9, i64 %7
  %34 = tail call i64 @DirectFunctionCall2Coll(ptr noundef nonnull @timetz_lt, i32 noundef 0, i64 noundef %.047, i64 noundef %spec.select54) #16
  %.not60 = icmp eq i64 %34, 0
  %brmerge.not = and i1 %.not60, %.050
  %not..not60 = xor i1 %.not60, true
  br i1 %brmerge.not, label %.sink.split, label %42

35:                                               ; preds = %.thread, %29
  %.04871 = phi i1 [ false, %.thread ], [ true, %29 ]
  %.05169 = phi i64 [ %spec.select55, %.thread ], [ %.051, %29 ]
  %36 = tail call i64 @DirectFunctionCall2Coll(ptr noundef nonnull @timetz_lt, i32 noundef 0, i64 noundef %.047, i64 noundef %.05169) #16
  %.not58 = icmp eq i64 %36, 0
  br i1 %.not58, label %40, label %37

37:                                               ; preds = %35
  br i1 %.050, label %.sink.split, label %38

38:                                               ; preds = %37
  %39 = tail call i64 @DirectFunctionCall2Coll(ptr noundef nonnull @timetz_lt, i32 noundef 0, i64 noundef %.05169, i64 noundef %.049) #16
  %.not59 = icmp eq i64 %39, 0
  %brmerge61.not = and i1 %.not59, %.04871
  %not..not59 = xor i1 %.not59, true
  br i1 %brmerge61.not, label %.sink.split, label %42

40:                                               ; preds = %35
  %brmerge63 = or i1 %.050, %.04871
  br i1 %brmerge63, label %.sink.split, label %42

.sink.split:                                      ; preds = %40, %38, %37, %33, %29, %27, %22
  %41 = getelementptr inbounds nuw i8, ptr %0, i64 28
  store i8 1, ptr %41, align 4
  br label %42

42:                                               ; preds = %.sink.split, %40, %38, %33
  %.0.shrunk = phi i1 [ %not..not60, %33 ], [ %not..not59, %38 ], [ true, %40 ], [ false, %.sink.split ]
  %.0 = zext i1 %.0.shrunk to i64
  ret i64 %.0
}